target datalayout = "e-m:e-p270:32:32-p271:32:32-p272:64:64-i64:64-i128:128-f80:128-n8:16:32:64-S128"
target triple = "x86_64-pc-linux-gnu"

%"class.duckdb_re2::Regexp::ParseState" = type { i32, %"class.duckdb_re2::StringPiece", ptr, ptr, i32, i32 }
%"class.duckdb_re2::StringPiece" = type { ptr, i64 }
%"class.duckdb_re2::Regexp" = type { i8, i8, i16, i16, i16, %union.anon, ptr, %union.anon.0 }
%union.anon = type { ptr }
%union.anon.0 = type { %struct.anon.1 }
%struct.anon.1 = type { i32, ptr }
%struct.anon.3 = type { ptr, ptr }
%"class.duckdb_re2::CharClassBuilder" = type { i32, i32, i32, %"class.std::set" }
%"class.std::set" = type { %"class.std::_Rb_tree" }
%"class.std::_Rb_tree" = type { %"struct.std::_Rb_tree<duckdb_re2::RuneRange, duckdb_re2::RuneRange, std::_Identity<duckdb_re2::RuneRange>, duckdb_re2::RuneRangeLess>::_Rb_tree_impl" }
%"struct.std::_Rb_tree<duckdb_re2::RuneRange, duckdb_re2::RuneRange, std::_Identity<duckdb_re2::RuneRange>, duckdb_re2::RuneRangeLess>::_Rb_tree_impl" = type { [8 x i8], %"struct.std::_Rb_tree_header" }
%"struct.std::_Rb_tree_header" = type { %"struct.std::_Rb_tree_node_base", i64 }
%"struct.std::_Rb_tree_node_base" = type { i32, ptr, ptr, ptr }
%"struct.std::_Rb_tree_const_iterator" = type { ptr }
%"struct.duckdb_re2::RuneRange" = type { i32, i32 }
%"struct.std::_Rb_tree_node" = type { %"struct.std::_Rb_tree_node_base", %"struct.__gnu_cxx::__aligned_membuf" }
%"struct.__gnu_cxx::__aligned_membuf" = type { [8 x i8] }

; Function Attrs: mustprogress nounwind uwtable
define linkonce_odr hidden noundef ptr @_ZNK9__gnu_cxx16__aligned_membufIN10duckdb_re29RuneRangeEE7_M_addrEv(ptr noundef nonnull align 4 dereferenceable(8) %0) #0 comdat align 2 {
  %2 = alloca ptr, align 8
  store ptr %0, ptr %2, align 8, !tbaa !227
  %3 = load ptr, ptr %2, align 8
  %4 = getelementptr inbounds nuw %"struct.__gnu_cxx::__aligned_membuf", ptr %3, i32 0, i32 0
  ret ptr %4
}

; Function Attrs: mustprogress nounwind uwtable
define linkonce_odr hidden void @_ZNSt23_Rb_tree_const_iteratorIN10duckdb_re29RuneRangeEEC2EPKSt18_Rb_tree_node_base(ptr noundef nonnull align 8 dereferenceable(8) %0, ptr noundef %1) unnamed_addr #0 comdat align 2 {
  %3 = alloca ptr, align 8
  %4 = alloca ptr, align 8
  store ptr %0, ptr %3, align 8, !tbaa !57
  store ptr %1, ptr %4, align 8, !tbaa !222
  %5 = load ptr, ptr %3, align 8
  %6 = getelementptr inbounds nuw %"struct.std::_Rb_tree_const_iterator", ptr %5, i32 0, i32 0
  %7 = load ptr, ptr %4, align 8, !tbaa !222
  store ptr %7, ptr %6, align 8, !tbaa !59
  ret void
}

; Function Attrs: mustprogress nounwind uwtable
define linkonce_odr hidden noundef ptr @_ZNK9__gnu_cxx16__aligned_membufIN10duckdb_re29RuneRangeEE6_M_ptrEv(ptr noundef nonnull align 4 dereferenceable(8) %0) #0 comdat align 2 {
  %2 = alloca ptr, align 8
  store ptr %0, ptr %2, align 8, !tbaa !227
  %3 = load ptr, ptr %2, align 8
  %4 = call noundef ptr @_ZNK9__gnu_cxx16__aligned_membufIN10duckdb_re29RuneRangeEE7_M_addrEv(ptr noundef nonnull align 4 dereferenceable(8) %3) #19
  ret ptr %4
}

; Function Attrs: mustprogress nounwind uwtable
define linkonce_odr hidden ptr @_ZNKSt8_Rb_treeIN10duckdb_re29RuneRangeES1_St9_IdentityIS1_ENS0_13RuneRangeLessESaIS1_EE5beginEv(ptr noundef nonnull align 8 dereferenceable(48) %0) #0 comdat align 2 {
  %2 = alloca %"struct.std::_Rb_tree_const_iterator", align 8
  %3 = alloca ptr, align 8
  store ptr %0, ptr %3, align 8, !tbaa !215
  %4 = load ptr, ptr %3, align 8
  %5 = getelementptr inbounds nuw %"class.std::_Rb_tree", ptr %4, i32 0, i32 0
  %6 = getelementptr inbounds i8, ptr %5, i64 8
  %7 = getelementptr inbounds nuw %"struct.std::_Rb_tree_header", ptr %6, i32 0, i32 0
  %8 = getelementptr inbounds nuw %"struct.std::_Rb_tree_node_base", ptr %7, i32 0, i32 2
  %9 = load ptr, ptr %8, align 8, !tbaa !230
  call void @_ZNSt23_Rb_tree_const_iteratorIN10duckdb_re29RuneRangeEEC2EPKSt18_Rb_tree_node_base(ptr noundef nonnull align 8 dereferenceable(8) %2, ptr noundef %9) #19
  %10 = getelementptr inbounds nuw %"struct.std::_Rb_tree_const_iterator", ptr %2, i32 0, i32 0
  %11 = load ptr, ptr %10, align 8
  ret ptr %11
}

; Function Attrs: noinline noreturn nounwind uwtable
define linkonce_odr hidden void @__clang_call_terminate(ptr noundef %0) #5 comdat {
  %2 = call ptr @__cxa_begin_catch(ptr %0) #19
  call void @_ZSt9terminatev() #22
  unreachable
}

; Function Attrs: mustprogress nounwind uwtable
define linkonce_odr hidden noundef ptr @_ZNKSt13_Rb_tree_nodeIN10duckdb_re29RuneRangeEE9_M_valptrEv(ptr noundef nonnull align 8 dereferenceable(40) %0) #0 comdat align 2 {
  %2 = alloca ptr, align 8
  store ptr %0, ptr %2, align 8, !tbaa !217
  %3 = load ptr, ptr %2, align 8
  %4 = getelementptr inbounds nuw %"struct.std::_Rb_tree_node", ptr %3, i32 0, i32 1
  %5 = call noundef ptr @_ZNK9__gnu_cxx16__aligned_membufIN10duckdb_re29RuneRangeEE6_M_ptrEv(ptr noundef nonnull align 4 dereferenceable(8) %4) #19
  ret ptr %5
}

; Function Attrs: mustprogress nounwind uwtable
define linkonce_odr hidden ptr @_ZNKSt3setIN10duckdb_re29RuneRangeENS0_13RuneRangeLessESaIS1_EE5beginEv(ptr noundef nonnull align 8 dereferenceable(48) %0) #0 comdat align 2 {
  %2 = alloca %"struct.std::_Rb_tree_const_iterator", align 8
  %3 = alloca ptr, align 8
  store ptr %0, ptr %3, align 8, !tbaa !213
  %4 = load ptr, ptr %3, align 8
  %5 = getelementptr inbounds nuw %"class.std::set", ptr %4, i32 0, i32 0
  %6 = call ptr @_ZNKSt8_Rb_treeIN10duckdb_re29RuneRangeES1_St9_IdentityIS1_ENS0_13RuneRangeLessESaIS1_EE5beginEv(ptr noundef nonnull align 8 dereferenceable(48) %5) #19
  %7 = getelementptr inbounds nuw %"struct.std::_Rb_tree_const_iterator", ptr %2, i32 0, i32 0
  store ptr %6, ptr %7, align 8
  %8 = getelementptr inbounds nuw %"struct.std::_Rb_tree_const_iterator", ptr %2, i32 0, i32 0
  %9 = load ptr, ptr %8, align 8
  ret ptr %9
}

; Function Attrs: mustprogress nounwind uwtable
define hidden noundef zeroext i1 @_ZN10duckdb_re26Regexp10ParseState8IsMarkerENS_8RegexpOpE(ptr noundef nonnull align 8 dereferenceable(48) %0, i32 noundef %1) #0 align 2 {
  %3 = alloca ptr, align 8
  %4 = alloca i32, align 4
  store ptr %0, ptr %3, align 8, !tbaa !7
  store i32 %1, ptr %4, align 4, !tbaa !61
  %5 = load i32, ptr %4, align 4, !tbaa !61
  %6 = icmp sge i32 %5, 22
  ret i1 %6
}

; Function Attrs: mustprogress nounwind uwtable
define linkonce_odr hidden noundef i32 @_ZN10duckdb_re26Regexp2opEv(ptr noundef nonnull align 8 dereferenceable(40) %0) #0 comdat align 2 {
  %2 = alloca ptr, align 8
  store ptr %0, ptr %2, align 8, !tbaa !29
  %3 = load ptr, ptr %2, align 8
  %4 = getelementptr inbounds nuw %"class.duckdb_re2::Regexp", ptr %3, i32 0, i32 0
  %5 = load i8, ptr %4, align 8, !tbaa !36
  %6 = zext i8 %5 to i32
  ret i32 %6
}

; Function Attrs: inlinehint mustprogress nounwind uwtable
define linkonce_odr hidden noundef i32 @_ZN10duckdb_re2orENS_6Regexp10ParseFlagsES1_(i32 noundef %0, i32 noundef %1) #3 comdat {
  %3 = alloca i32, align 4
  %4 = alloca i32, align 4
  store i32 %0, ptr %3, align 4, !tbaa !10
  store i32 %1, ptr %4, align 4, !tbaa !10
  %5 = load i32, ptr %3, align 4, !tbaa !10
  %6 = load i32, ptr %4, align 4, !tbaa !10
  %7 = or i32 %5, %6
  ret i32 %7
}

; Function Attrs: mustprogress nounwind uwtable
define linkonce_odr hidden noundef ptr @_ZNKSt23_Rb_tree_const_iteratorIN10duckdb_re29RuneRangeEEptEv(ptr noundef nonnull align 8 dereferenceable(8) %0) #0 comdat align 2 personality ptr @__gxx_personality_v0 {
  %2 = alloca ptr, align 8
  store ptr %0, ptr %2, align 8, !tbaa !57
  %3 = load ptr, ptr %2, align 8
  %4 = getelementptr inbounds nuw %"struct.std::_Rb_tree_const_iterator", ptr %3, i32 0, i32 0
  %5 = load ptr, ptr %4, align 8, !tbaa !59
  %6 = invoke noundef ptr @_ZNKSt13_Rb_tree_nodeIN10duckdb_re29RuneRangeEE9_M_valptrEv(ptr noundef nonnull align 8 dereferenceable(40) %5)
          to label %7 unwind label %8

7:                                                ; preds = %1
  ret ptr %6

8:                                                ; preds = %1
  %9 = landingpad { ptr, i32 }
          catch ptr null
  %10 = extractvalue { ptr, i32 } %9, 0
  call void @__clang_call_terminate(ptr %10) #22
  unreachable
}

; Function Attrs: mustprogress nounwind uwtable
define linkonce_odr hidden ptr @_ZN10duckdb_re216CharClassBuilder5beginEv(ptr noundef nonnull align 8 dereferenceable(64) %0) #0 comdat align 2 {
  %2 = alloca %"struct.std::_Rb_tree_const_iterator", align 8
  %3 = alloca ptr, align 8
  store ptr %0, ptr %3, align 8, !tbaa !39
  %4 = load ptr, ptr %3, align 8
  %5 = getelementptr inbounds nuw %"class.duckdb_re2::CharClassBuilder", ptr %4, i32 0, i32 3
  %6 = call ptr @_ZNKSt3setIN10duckdb_re29RuneRangeENS0_13RuneRangeLessESaIS1_EE5beginEv(ptr noundef nonnull align 8 dereferenceable(48) %5) #19
  %7 = getelementptr inbounds nuw %"struct.std::_Rb_tree_const_iterator", ptr %2, i32 0, i32 0
  store ptr %6, ptr %7, align 8
  %8 = getelementptr inbounds nuw %"struct.std::_Rb_tree_const_iterator", ptr %2, i32 0, i32 0
  %9 = load ptr, ptr %8, align 8
  ret ptr %9
}

; Function Attrs: mustprogress nounwind uwtable
define linkonce_odr hidden noundef i32 @_ZN10duckdb_re216CharClassBuilder4sizeEv(ptr noundef nonnull align 8 dereferenceable(64) %0) #0 comdat align 2 {
  %2 = alloca ptr, align 8
  store ptr %0, ptr %2, align 8, !tbaa !39
  %3 = load ptr, ptr %2, align 8
  %4 = getelementptr inbounds nuw %"class.duckdb_re2::CharClassBuilder", ptr %3, i32 0, i32 2
  %5 = load i32, ptr %4, align 8, !tbaa !46
  ret i32 %5
}

; Function Attrs: mustprogress uwtable
define hidden noundef zeroext i1 @_ZN10duckdb_re26Regexp10ParseState10PushRegexpEPS0_(ptr noundef nonnull align 8 dereferenceable(48) %0, ptr noundef %1) #1 align 2 personality ptr @__gxx_personality_v0 {
  %3 = alloca ptr, align 8
  %4 = alloca ptr, align 8
  %5 = alloca i32, align 4
  %6 = alloca %"struct.std::_Rb_tree_const_iterator", align 8
  %7 = alloca ptr, align 8
  %8 = alloca i32, align 4
  %9 = alloca i32, align 4
  %10 = alloca %"struct.std::_Rb_tree_const_iterator", align 8
  store ptr %0, ptr %3, align 8, !tbaa !7
  store ptr %1, ptr %4, align 8, !tbaa !29
  %11 = load ptr, ptr %3, align 8
  %12 = call noundef zeroext i1 @_ZN10duckdb_re26Regexp10ParseState17MaybeConcatStringEiNS0_10ParseFlagsE(ptr noundef nonnull align 8 dereferenceable(48) %11, i32 noundef -1, i32 noundef 0)
  %13 = load ptr, ptr %4, align 8, !tbaa !29
  %14 = getelementptr inbounds nuw %"class.duckdb_re2::Regexp", ptr %13, i32 0, i32 0
  %15 = load i8, ptr %14, align 8, !tbaa !36
  %16 = zext i8 %15 to i32
  %17 = icmp eq i32 %16, 20
  br i1 %17, label %18, label %110

18:                                               ; preds = %2
  %19 = load ptr, ptr %4, align 8, !tbaa !29
  %20 = getelementptr inbounds nuw %"class.duckdb_re2::Regexp", ptr %19, i32 0, i32 7
  %21 = getelementptr inbounds nuw %struct.anon.3, ptr %20, i32 0, i32 1
  %22 = load ptr, ptr %21, align 8, !tbaa !33
  %23 = icmp ne ptr %22, null
  br i1 %23, label %24, label %110

24:                                               ; preds = %18
  %25 = load ptr, ptr %4, align 8, !tbaa !29
  %26 = getelementptr inbounds nuw %"class.duckdb_re2::Regexp", ptr %25, i32 0, i32 7
  %27 = getelementptr inbounds nuw %struct.anon.3, ptr %26, i32 0, i32 1
  %28 = load ptr, ptr %27, align 8, !tbaa !33
  %29 = getelementptr inbounds nuw %"class.duckdb_re2::Regexp::ParseState", ptr %11, i32 0, i32 5
  %30 = load i32, ptr %29, align 4, !tbaa !28
  call void @_ZN10duckdb_re216CharClassBuilder11RemoveAboveEi(ptr noundef nonnull align 8 dereferenceable(64) %28, i32 noundef %30)
  %31 = load ptr, ptr %4, align 8, !tbaa !29
  %32 = getelementptr inbounds nuw %"class.duckdb_re2::Regexp", ptr %31, i32 0, i32 7
  %33 = getelementptr inbounds nuw %struct.anon.3, ptr %32, i32 0, i32 1
  %34 = load ptr, ptr %33, align 8, !tbaa !33
  %35 = call noundef i32 @_ZN10duckdb_re216CharClassBuilder4sizeEv(ptr noundef nonnull align 8 dereferenceable(64) %34)
  %36 = icmp eq i32 %35, 1
  br i1 %36, label %37, label %59

37:                                               ; preds = %24
  call void @llvm.lifetime.start.p0(i64 4, ptr %5) #19
  call void @llvm.lifetime.start.p0(i64 8, ptr %6) #19
  %38 = load ptr, ptr %4, align 8, !tbaa !29
  %39 = getelementptr inbounds nuw %"class.duckdb_re2::Regexp", ptr %38, i32 0, i32 7
  %40 = getelementptr inbounds nuw %struct.anon.3, ptr %39, i32 0, i32 1
  %41 = load ptr, ptr %40, align 8, !tbaa !33
  %42 = call ptr @_ZN10duckdb_re216CharClassBuilder5beginEv(ptr noundef nonnull align 8 dereferenceable(64) %41)
  %43 = getelementptr inbounds nuw %"struct.std::_Rb_tree_const_iterator", ptr %6, i32 0, i32 0
  store ptr %42, ptr %43, align 8
  %44 = call noundef ptr @_ZNKSt23_Rb_tree_const_iteratorIN10duckdb_re29RuneRangeEEptEv(ptr noundef nonnull align 8 dereferenceable(8) %6) #19
  %45 = getelementptr inbounds nuw %"struct.duckdb_re2::RuneRange", ptr %44, i32 0, i32 0
  %46 = load i32, ptr %45, align 4, !tbaa !41
  call void @llvm.lifetime.end.p0(i64 8, ptr %6) #19
  store i32 %46, ptr %5, align 4, !tbaa !3
  %47 = load ptr, ptr %4, align 8, !tbaa !29
  call void @_ZN10duckdb_re26Regexp6DecrefEv(ptr noundef nonnull align 8 dereferenceable(40) %47)
  %48 = call noalias noundef nonnull ptr @_Znwm(i64 noundef 40) #23
  %49 = getelementptr inbounds nuw %"class.duckdb_re2::Regexp::ParseState", ptr %11, i32 0, i32 0
  %50 = load i32, ptr %49, align 8, !tbaa !16
  invoke void @_ZN10duckdb_re26RegexpC1ENS_8RegexpOpENS0_10ParseFlagsE(ptr noundef nonnull align 8 dereferenceable(40) %48, i32 noundef 3, i32 noundef %50)
          to label %51 unwind label %55

51:                                               ; preds = %37
  store ptr %48, ptr %4, align 8, !tbaa !29
  %52 = load i32, ptr %5, align 4, !tbaa !3
  %53 = load ptr, ptr %4, align 8, !tbaa !29
  %54 = getelementptr inbounds nuw %"class.duckdb_re2::Regexp", ptr %53, i32 0, i32 7
  store i32 %52, ptr %54, align 8, !tbaa !33
  call void @llvm.lifetime.end.p0(i64 4, ptr %5) #19
  br label %109

55:                                               ; preds = %37
  %56 = landingpad { ptr, i32 }
          cleanup
  %57 = extractvalue { ptr, i32 } %56, 0
  store ptr %57, ptr %7, align 8
  %58 = extractvalue { ptr, i32 } %56, 1
  store i32 %58, ptr %8, align 4
  call void @_ZdlPv(ptr noundef %48) #21
  call void @llvm.lifetime.end.p0(i64 4, ptr %5) #19
  br label %127

59:                                               ; preds = %24
  %60 = load ptr, ptr %4, align 8, !tbaa !29
  %61 = getelementptr inbounds nuw %"class.duckdb_re2::Regexp", ptr %60, i32 0, i32 7
  %62 = getelementptr inbounds nuw %struct.anon.3, ptr %61, i32 0, i32 1
  %63 = load ptr, ptr %62, align 8, !tbaa !33
  %64 = call noundef i32 @_ZN10duckdb_re216CharClassBuilder4sizeEv(ptr noundef nonnull align 8 dereferenceable(64) %63)
  %65 = icmp eq i32 %64, 2
  br i1 %65, label %66, label %108

66:                                               ; preds = %59
  call void @llvm.lifetime.start.p0(i64 4, ptr %9) #19
  call void @llvm.lifetime.start.p0(i64 8, ptr %10) #19
  %67 = load ptr, ptr %4, align 8, !tbaa !29
  %68 = getelementptr inbounds nuw %"class.duckdb_re2::Regexp", ptr %67, i32 0, i32 7
  %69 = getelementptr inbounds nuw %struct.anon.3, ptr %68, i32 0, i32 1
  %70 = load ptr, ptr %69, align 8, !tbaa !33
  %71 = call ptr @_ZN10duckdb_re216CharClassBuilder5beginEv(ptr noundef nonnull align 8 dereferenceable(64) %70)
  %72 = getelementptr inbounds nuw %"struct.std::_Rb_tree_const_iterator", ptr %10, i32 0, i32 0
  store ptr %71, ptr %72, align 8
  %73 = call noundef ptr @_ZNKSt23_Rb_tree_const_iteratorIN10duckdb_re29RuneRangeEEptEv(ptr noundef nonnull align 8 dereferenceable(8) %10) #19
  %74 = getelementptr inbounds nuw %"struct.duckdb_re2::RuneRange", ptr %73, i32 0, i32 0
  %75 = load i32, ptr %74, align 4, !tbaa !41
  call void @llvm.lifetime.end.p0(i64 8, ptr %10) #19
  store i32 %75, ptr %9, align 4, !tbaa !3
  %76 = load i32, ptr %9, align 4, !tbaa !3
  %77 = icmp sle i32 65, %76
  br i1 %77, label %78, label %107

78:                                               ; preds = %66
  %79 = load i32, ptr %9, align 4, !tbaa !3
  %80 = icmp sle i32 %79, 90
  br i1 %80, label %81, label %107

81:                                               ; preds = %78
  %82 = load ptr, ptr %4, align 8, !tbaa !29
  %83 = getelementptr inbounds nuw %"class.duckdb_re2::Regexp", ptr %82, i32 0, i32 7
  %84 = getelementptr inbounds nuw %struct.anon.3, ptr %83, i32 0, i32 1
  %85 = load ptr, ptr %84, align 8, !tbaa !33
  %86 = load i32, ptr %9, align 4, !tbaa !3
  %87 = add nsw i32 %86, 97
  %88 = sub nsw i32 %87, 65
  %89 = call noundef zeroext i1 @_ZN10duckdb_re216CharClassBuilder8ContainsEi(ptr noundef nonnull align 8 dereferenceable(64) %85, i32 noundef %88)
  br i1 %89, label %90, label %107

90:                                               ; preds = %81
  %91 = load ptr, ptr %4, align 8, !tbaa !29
  call void @_ZN10duckdb_re26Regexp6DecrefEv(ptr noundef nonnull align 8 dereferenceable(40) %91)
  %92 = call noalias noundef nonnull ptr @_Znwm(i64 noundef 40) #23
  %93 = getelementptr inbounds nuw %"class.duckdb_re2::Regexp::ParseState", ptr %11, i32 0, i32 0
  %94 = load i32, ptr %93, align 8, !tbaa !16
  %95 = invoke noundef i32 @_ZN10duckdb_re2orENS_6Regexp10ParseFlagsES1_(i32 noundef %94, i32 noundef 1)
          to label %96 unwind label %103

96:                                               ; preds = %90
  invoke void @_ZN10duckdb_re26RegexpC1ENS_8RegexpOpENS0_10ParseFlagsE(ptr noundef nonnull align 8 dereferenceable(40) %92, i32 noundef 3, i32 noundef %95)
          to label %97 unwind label %103

97:                                               ; preds = %96
  store ptr %92, ptr %4, align 8, !tbaa !29
  %98 = load i32, ptr %9, align 4, !tbaa !3
  %99 = add nsw i32 %98, 97
  %100 = sub nsw i32 %99, 65
  %101 = load ptr, ptr %4, align 8, !tbaa !29
  %102 = getelementptr inbounds nuw %"class.duckdb_re2::Regexp", ptr %101, i32 0, i32 7
  store i32 %100, ptr %102, align 8, !tbaa !33
  br label %107

103:                                              ; preds = %96, %90
  %104 = landingpad { ptr, i32 }
          cleanup
  %105 = extractvalue { ptr, i32 } %104, 0
  store ptr %105, ptr %7, align 8
  %106 = extractvalue { ptr, i32 } %104, 1
  store i32 %106, ptr %8, align 4
  call void @_ZdlPv(ptr noundef %92) #21
  call void @llvm.lifetime.end.p0(i64 4, ptr %9) #19
  br label %127

107:                                              ; preds = %97, %81, %78, %66
  call void @llvm.lifetime.end.p0(i64 4, ptr %9) #19
  br label %108

108:                                              ; preds = %107, %59
  br label %109

109:                                              ; preds = %108, %51
  br label %110

110:                                              ; preds = %109, %18, %2
  %111 = load ptr, ptr %4, align 8, !tbaa !29
  %112 = call noundef i32 @_ZN10duckdb_re26Regexp2opEv(ptr noundef nonnull align 8 dereferenceable(40) %111)
  %113 = call noundef zeroext i1 @_ZN10duckdb_re26Regexp10ParseState8IsMarkerENS_8RegexpOpE(ptr noundef nonnull align 8 dereferenceable(48) %11, i32 noundef %112)
  br i1 %113, label %120, label %114

114:                                              ; preds = %110
  %115 = load ptr, ptr %4, align 8, !tbaa !29
  %116 = call noundef zeroext i1 @_ZN10duckdb_re26Regexp13ComputeSimpleEv(ptr noundef nonnull align 8 dereferenceable(40) %115)
  %117 = zext i1 %116 to i8
  %118 = load ptr, ptr %4, align 8, !tbaa !29
  %119 = getelementptr inbounds nuw %"class.duckdb_re2::Regexp", ptr %118, i32 0, i32 1
  store i8 %117, ptr %119, align 1, !tbaa !43
  br label %120

120:                                              ; preds = %114, %110
  %121 = getelementptr inbounds nuw %"class.duckdb_re2::Regexp::ParseState", ptr %11, i32 0, i32 3
  %122 = load ptr, ptr %121, align 8, !tbaa !26
  %123 = load ptr, ptr %4, align 8, !tbaa !29
  %124 = getelementptr inbounds nuw %"class.duckdb_re2::Regexp", ptr %123, i32 0, i32 6
  store ptr %122, ptr %124, align 8, !tbaa !30
  %125 = load ptr, ptr %4, align 8, !tbaa !29
  %126 = getelementptr inbounds nuw %"class.duckdb_re2::Regexp::ParseState", ptr %11, i32 0, i32 3
  store ptr %125, ptr %126, align 8, !tbaa !26
  ret i1 true

127:                                              ; preds = %103, %55
  %128 = load ptr, ptr %7, align 8
  %129 = load i32, ptr %8, align 4
  %130 = insertvalue { ptr, i32 } poison, ptr %128, 0
  %131 = insertvalue { ptr, i32 } %130, i32 %129, 1
  resume { ptr, i32 } %131
}