; Function Attrs: mustprogress uwtable
define hidden noundef zeroext i1 @_ZN10duckdb_re26Regexp10ParseState10PushRegexpEPS0_(ptr noundef nonnull align 8 captures(none) dereferenceable(48) %0, ptr noundef %1) local_unnamed_addr #9 align 2 personality ptr @__gxx_personality_v0 {
  %3 = tail call noundef zeroext i1 @_ZN10duckdb_re26Regexp10ParseState17MaybeConcatStringEiNS0_10ParseFlagsE(ptr noundef nonnull align 8 dereferenceable(48) %0, i32 noundef -1, i32 noundef 0)
  %4 = load i8, ptr %1, align 8, !tbaa !26
  %5 = icmp eq i8 %4, 20
  br i1 %5, label %6, label %40

6:                                                ; preds = %2
  %7 = getelementptr inbounds nuw i8, ptr %1, i64 32
  %8 = load ptr, ptr %7, align 8, !tbaa !27
  %.not = icmp eq ptr %8, null
  br i1 %.not, label %thread-pre-split, label %9

9:                                                ; preds = %6
  %10 = getelementptr inbounds nuw i8, ptr %0, i64 44
  %11 = load i32, ptr %10, align 4, !tbaa !22
  tail call void @_ZN10duckdb_re216CharClassBuilder11RemoveAboveEi(ptr noundef nonnull align 8 dereferenceable(64) %8, i32 noundef %11)
  %12 = load ptr, ptr %7, align 8, !tbaa !27
  %13 = getelementptr inbounds nuw i8, ptr %12, i64 8
  %14 = load i32, ptr %13, align 8, !tbaa !39
  switch i32 %14, label %thread-pre-split [
    i32 1, label %15
    i32 2, label %24
  ]

15:                                               ; preds = %9
  %16 = getelementptr inbounds nuw i8, ptr %12, i64 40
  %17 = load ptr, ptr %16, align 8, !tbaa !46
  %18 = getelementptr inbounds nuw i8, ptr %17, i64 32
  %19 = load i32, ptr %18, align 4, !tbaa !47
  tail call void @_ZN10duckdb_re26Regexp6DecrefEv(ptr noundef nonnull align 8 dereferenceable(40) %1)
  %20 = tail call noalias noundef nonnull dereferenceable(40) ptr @_Znwm(i64 noundef 40) #33
  %21 = load i32, ptr %0, align 8, !tbaa !7
  invoke void @_ZN10duckdb_re26RegexpC1ENS_8RegexpOpENS0_10ParseFlagsE(ptr noundef nonnull align 8 dereferenceable(40) %20, i32 noundef 3, i32 noundef %21)
          to label %thread-pre-split.sink.split unwind label %22

22:                                               ; preds = %15
  %23 = landingpad { ptr, i32 }
          cleanup
  br label %51

24:                                               ; preds = %9
  %25 = getelementptr inbounds nuw i8, ptr %12, i64 40
  %26 = load ptr, ptr %25, align 8, !tbaa !46
  %27 = getelementptr inbounds nuw i8, ptr %26, i64 32
  %28 = load i32, ptr %27, align 4, !tbaa !47
  %29 = add i32 %28, -65
  %or.cond = icmp ult i32 %29, 26
  br i1 %or.cond, label %30, label %thread-pre-split

30:                                               ; preds = %24
  %31 = or disjoint i32 %28, 32
  %32 = tail call noundef zeroext i1 @_ZN10duckdb_re216CharClassBuilder8ContainsEi(ptr noundef nonnull align 8 dereferenceable(64) %12, i32 noundef %31)
  br i1 %32, label %33, label %thread-pre-split

33:                                               ; preds = %30
  tail call void @_ZN10duckdb_re26Regexp6DecrefEv(ptr noundef nonnull align 8 dereferenceable(40) %1)
  %34 = tail call noalias noundef nonnull dereferenceable(40) ptr @_Znwm(i64 noundef 40) #33
  %35 = load i32, ptr %0, align 8, !tbaa !7
  %36 = or i32 %35, 1
  invoke void @_ZN10duckdb_re26RegexpC1ENS_8RegexpOpENS0_10ParseFlagsE(ptr noundef nonnull align 8 dereferenceable(40) %34, i32 noundef 3, i32 noundef %36)
          to label %thread-pre-split.sink.split unwind label %37

37:                                               ; preds = %33
  %38 = landingpad { ptr, i32 }
          cleanup
  br label %51

thread-pre-split.sink.split:                      ; preds = %33, %15
  %.sink32 = phi ptr [ %20, %15 ], [ %34, %33 ]
  %.sink = phi i32 [ %19, %15 ], [ %31, %33 ]
  %39 = getelementptr inbounds nuw i8, ptr %.sink32, i64 24
  store i32 %.sink, ptr %39, align 8, !tbaa !27
  br label %thread-pre-split

thread-pre-split:                                 ; preds = %thread-pre-split.sink.split, %6, %30, %24, %9
  %.0.ph = phi ptr [ %1, %9 ], [ %1, %24 ], [ %1, %30 ], [ %1, %6 ], [ %.sink32, %thread-pre-split.sink.split ]
  %.pr = load i8, ptr %.0.ph, align 8, !tbaa !26
  br label %40

40:                                               ; preds = %thread-pre-split, %2
  %41 = phi i8 [ %.pr, %thread-pre-split ], [ %4, %2 ]
  %.0 = phi ptr [ %.0.ph, %thread-pre-split ], [ %1, %2 ]
  %42 = icmp ugt i8 %41, 21
  br i1 %42, label %47, label %43

43:                                               ; preds = %40
  %44 = tail call noundef zeroext i1 @_ZN10duckdb_re26Regexp13ComputeSimpleEv(ptr noundef nonnull align 8 dereferenceable(40) %.0)
  %45 = zext i1 %44 to i8
  %46 = getelementptr inbounds nuw i8, ptr %.0, i64 1
  store i8 %45, ptr %46, align 1, !tbaa !49
  br label %47

47:                                               ; preds = %43, %40
  %48 = getelementptr inbounds nuw i8, ptr %0, i64 32
  %49 = load ptr, ptr %48, align 8, !tbaa !20
  %50 = getelementptr inbounds nuw i8, ptr %.0, i64 16
  store ptr %49, ptr %50, align 8, !tbaa !23
  store ptr %.0, ptr %48, align 8, !tbaa !20
  ret i1 true

51:                                               ; preds = %37, %22
  %.sink33 = phi ptr [ %34, %37 ], [ %20, %22 ]
  %.pn = phi { ptr, i32 } [ %38, %37 ], [ %23, %22 ]
  tail call void @_ZdlPv(ptr noundef nonnull %.sink33) #30
  resume { ptr, i32 } %.pn
}